target datalayout = "e-m:e-p270:32:32-p271:32:32-p272:64:64-i64:64-i128:128-f80:128-n8:16:32:64-S128"
target triple = "x86_64-pc-linux-gnu"

%"struct.std::_Rb_tree_header" = type { %"struct.std::_Rb_tree_node_base", i64 }
%"struct.std::_Rb_tree_node_base" = type { i32, ptr, ptr, ptr }
%"class.std::vector.29" = type { %"struct.std::_Vector_base.30" }
%"struct.std::_Vector_base.30" = type { %"struct.std::_Vector_base<int, std::allocator<int>>::_Vector_impl" }
%"struct.std::_Vector_base<int, std::allocator<int>>::_Vector_impl" = type { %"struct.std::_Vector_base<int, std::allocator<int>>::_Vector_impl_data" }
%"struct.std::_Vector_base<int, std::allocator<int>>::_Vector_impl_data" = type { ptr, ptr, ptr }
%"struct.(anonymous namespace)::OutputWriter" = type { ptr, ptr }
%"class.std::basic_ofstream" = type { %"class.std::basic_ostream.base", %"class.std::basic_filebuf", %"class.std::basic_ios" }
%"class.std::basic_ostream.base" = type { ptr }
%"class.std::basic_filebuf" = type { %"class.std::basic_streambuf", %union.pthread_mutex_t, %"class.std::__basic_file", i32, %struct.__mbstate_t, %struct.__mbstate_t, %struct.__mbstate_t, ptr, i64, i8, i8, i8, i8, ptr, ptr, i8, ptr, ptr, i64, ptr, ptr }
%"class.std::basic_streambuf" = type { ptr, ptr, ptr, ptr, ptr, ptr, ptr, %"class.std::locale" }
%"class.std::locale" = type { ptr }
%union.pthread_mutex_t = type { %struct.__pthread_mutex_s }
%struct.__pthread_mutex_s = type { i32, i32, i32, i32, i32, i16, i16, %struct.__pthread_internal_list }
%struct.__pthread_internal_list = type { ptr, ptr }
%"class.std::__basic_file" = type <{ ptr, i8, [7 x i8] }>
%struct.__mbstate_t = type { i32, %union.anon.41 }
%union.anon.41 = type { i32 }
%"class.std::basic_ios" = type { %"class.std::ios_base", ptr, i8, i8, ptr, ptr, ptr, ptr }
%"class.std::ios_base" = type { ptr, i64, i64, i32, i32, i32, ptr, %"struct.std::ios_base::_Words", [8 x %"struct.std::ios_base::_Words"], i32, ptr, %"class.std::locale" }
%"struct.std::ios_base::_Words" = type { ptr, i64 }
%"struct.(anonymous namespace)::AIWWriter" = type { %"struct.(anonymous namespace)::OutputWriter", %"class.std::basic_ofstream", %"class.Yosys::hashlib::dict", %"class.Yosys::hashlib::dict.72", %"class.Yosys::hashlib::dict.72", %"class.Yosys::hashlib::dict.79", %"class.std::map.86" }
%"class.Yosys::hashlib::dict" = type <{ %"class.std::vector.29", %"class.std::vector.66", %"struct.Yosys::hashlib::hash_ops.71", [7 x i8] }>
%"class.std::vector.66" = type { %"struct.std::_Vector_base.67" }
%"struct.std::_Vector_base.67" = type { %"struct.std::_Vector_base<Yosys::hashlib::dict<int, std::pair<Yosys::RTLIL::SigBit, bool>>::entry_t, std::allocator<Yosys::hashlib::dict<int, std::pair<Yosys::RTLIL::SigBit, bool>>::entry_t>>::_Vector_impl" }
%"struct.std::_Vector_base<Yosys::hashlib::dict<int, std::pair<Yosys::RTLIL::SigBit, bool>>::entry_t, std::allocator<Yosys::hashlib::dict<int, std::pair<Yosys::RTLIL::SigBit, bool>>::entry_t>>::_Vector_impl" = type { %"struct.std::_Vector_base<Yosys::hashlib::dict<int, std::pair<Yosys::RTLIL::SigBit, bool>>::entry_t, std::allocator<Yosys::hashlib::dict<int, std::pair<Yosys::RTLIL::SigBit, bool>>::entry_t>>::_Vector_impl_data" }
%"struct.std::_Vector_base<Yosys::hashlib::dict<int, std::pair<Yosys::RTLIL::SigBit, bool>>::entry_t, std::allocator<Yosys::hashlib::dict<int, std::pair<Yosys::RTLIL::SigBit, bool>>::entry_t>>::_Vector_impl_data" = type { ptr, ptr, ptr }
%"struct.Yosys::hashlib::hash_ops.71" = type { i8 }
%"class.Yosys::hashlib::dict.72" = type <{ %"class.std::vector.29", %"class.std::vector.73", %"struct.Yosys::hashlib::hash_ops.71", [7 x i8] }>
%"class.std::vector.73" = type { %"struct.std::_Vector_base.74" }
%"struct.std::_Vector_base.74" = type { %"struct.std::_Vector_base<Yosys::hashlib::dict<int, Yosys::RTLIL::SigBit>::entry_t, std::allocator<Yosys::hashlib::dict<int, Yosys::RTLIL::SigBit>::entry_t>>::_Vector_impl" }
%"struct.std::_Vector_base<Yosys::hashlib::dict<int, Yosys::RTLIL::SigBit>::entry_t, std::allocator<Yosys::hashlib::dict<int, Yosys::RTLIL::SigBit>::entry_t>>::_Vector_impl" = type { %"struct.std::_Vector_base<Yosys::hashlib::dict<int, Yosys::RTLIL::SigBit>::entry_t, std::allocator<Yosys::hashlib::dict<int, Yosys::RTLIL::SigBit>::entry_t>>::_Vector_impl_data" }
%"struct.std::_Vector_base<Yosys::hashlib::dict<int, Yosys::RTLIL::SigBit>::entry_t, std::allocator<Yosys::hashlib::dict<int, Yosys::RTLIL::SigBit>::entry_t>>::_Vector_impl_data" = type { ptr, ptr, ptr }
%"class.Yosys::hashlib::dict.79" = type <{ %"class.std::vector.29", %"class.std::vector.80", %"struct.Yosys::hashlib::hash_ops.71", [7 x i8] }>
%"class.std::vector.80" = type { %"struct.std::_Vector_base.81" }
%"struct.std::_Vector_base.81" = type { %"struct.std::_Vector_base<Yosys::hashlib::dict<int, bool>::entry_t, std::allocator<Yosys::hashlib::dict<int, bool>::entry_t>>::_Vector_impl" }
%"struct.std::_Vector_base<Yosys::hashlib::dict<int, bool>::entry_t, std::allocator<Yosys::hashlib::dict<int, bool>::entry_t>>::_Vector_impl" = type { %"struct.std::_Vector_base<Yosys::hashlib::dict<int, bool>::entry_t, std::allocator<Yosys::hashlib::dict<int, bool>::entry_t>>::_Vector_impl_data" }
%"struct.std::_Vector_base<Yosys::hashlib::dict<int, bool>::entry_t, std::allocator<Yosys::hashlib::dict<int, bool>::entry_t>>::_Vector_impl_data" = type { ptr, ptr, ptr }
%"class.std::map.86" = type { %"class.std::_Rb_tree.87" }
%"class.std::_Rb_tree.87" = type { %"struct.std::_Rb_tree<Yosys::RTLIL::Wire *, std::pair<Yosys::RTLIL::Wire *const, int>, std::_Select1st<std::pair<Yosys::RTLIL::Wire *const, int>>, std::less<Yosys::RTLIL::Wire *>>::_Rb_tree_impl" }
%"struct.std::_Rb_tree<Yosys::RTLIL::Wire *, std::pair<Yosys::RTLIL::Wire *const, int>, std::_Select1st<std::pair<Yosys::RTLIL::Wire *const, int>>, std::less<Yosys::RTLIL::Wire *>>::_Rb_tree_impl" = type { %"struct.std::_Rb_tree_key_compare.91", %"struct.std::_Rb_tree_header" }
%"struct.std::_Rb_tree_key_compare.91" = type { %"struct.std::less.92" }
%"struct.std::less.92" = type { i8 }

; Function Attrs: mustprogress nounwind uwtable
define internal void @_ZN12_GLOBAL__N_112OutputWriterD2Ev(ptr noundef nonnull align 8 dereferenceable(16) %0) unnamed_addr #5 align 2 {
  %2 = alloca ptr, align 8
  store ptr %0, ptr %2, align 8
  ret void
}

; Function Attrs: mustprogress nounwind uwtable
define internal void @_ZN12_GLOBAL__N_19AIWWriterD2Ev(ptr noundef nonnull align 8 dereferenceable(800) %0) unnamed_addr #5 align 2 personality ptr @__gxx_personality_v0 {
  %2 = alloca ptr, align 8
  %3 = alloca ptr, align 8
  %4 = alloca i32, align 4
  store ptr %0, ptr %2, align 8
  %5 = load ptr, ptr %2, align 8
  store ptr getelementptr inbounds ({ [5 x ptr] }, ptr @_ZTVN12_GLOBAL__N_19AIWWriterE, i32 0, i32 0, i32 2), ptr %5, align 8
  %6 = getelementptr inbounds %"struct.(anonymous namespace)::AIWWriter", ptr %5, i32 0, i32 1
  %7 = invoke noundef nonnull align 8 dereferenceable(8) ptr @_ZStlsISt11char_traitsIcEERSt13basic_ostreamIcT_ES5_c(ptr noundef nonnull align 8 dereferenceable(8) %6, i8 noundef signext 46)
          to label %8 unwind label %17

8:                                                ; preds = %1
  %9 = invoke noundef nonnull align 8 dereferenceable(8) ptr @_ZStlsISt11char_traitsIcEERSt13basic_ostreamIcT_ES5_c(ptr noundef nonnull align 8 dereferenceable(8) %7, i8 noundef signext 10)
          to label %10 unwind label %17

10:                                               ; preds = %8
  %11 = getelementptr inbounds %"struct.(anonymous namespace)::AIWWriter", ptr %5, i32 0, i32 6
  call void @_ZNSt3mapIPN5Yosys5RTLIL4WireEiSt4lessIS3_ESaISt4pairIKS3_iEEED2Ev(ptr noundef nonnull align 8 dereferenceable(48) %11) #3
  %12 = getelementptr inbounds %"struct.(anonymous namespace)::AIWWriter", ptr %5, i32 0, i32 5
  call void @_ZN5Yosys7hashlib4dictIibNS0_8hash_opsIiEEED2Ev(ptr noundef nonnull align 8 dereferenceable(49) %12) #3
  %13 = getelementptr inbounds %"struct.(anonymous namespace)::AIWWriter", ptr %5, i32 0, i32 4
  call void @_ZN5Yosys7hashlib4dictIiNS_5RTLIL6SigBitENS0_8hash_opsIiEEED2Ev(ptr noundef nonnull align 8 dereferenceable(49) %13) #3
  %14 = getelementptr inbounds %"struct.(anonymous namespace)::AIWWriter", ptr %5, i32 0, i32 3
  call void @_ZN5Yosys7hashlib4dictIiNS_5RTLIL6SigBitENS0_8hash_opsIiEEED2Ev(ptr noundef nonnull align 8 dereferenceable(49) %14) #3
  %15 = getelementptr inbounds %"struct.(anonymous namespace)::AIWWriter", ptr %5, i32 0, i32 2
  call void @_ZN5Yosys7hashlib4dictIiSt4pairINS_5RTLIL6SigBitEbENS0_8hash_opsIiEEED2Ev(ptr noundef nonnull align 8 dereferenceable(49) %15) #3
  %16 = getelementptr inbounds %"struct.(anonymous namespace)::AIWWriter", ptr %5, i32 0, i32 1
  call void @_ZNSt14basic_ofstreamIcSt11char_traitsIcEED1Ev(ptr noundef nonnull align 8 dereferenceable(248) %16) #3
  call void @_ZN12_GLOBAL__N_112OutputWriterD2Ev(ptr noundef nonnull align 8 dereferenceable(16) %5) #3
  ret void

17:                                               ; preds = %8, %1
  %18 = landingpad { ptr, i32 }
          cleanup
          filter [0 x ptr] zeroinitializer
  %19 = extractvalue { ptr, i32 } %18, 0
  store ptr %19, ptr %3, align 8
  %20 = extractvalue { ptr, i32 } %18, 1
  store i32 %20, ptr %4, align 4
  %21 = getelementptr inbounds %"struct.(anonymous namespace)::AIWWriter", ptr %5, i32 0, i32 6
  call void @_ZNSt3mapIPN5Yosys5RTLIL4WireEiSt4lessIS3_ESaISt4pairIKS3_iEEED2Ev(ptr noundef nonnull align 8 dereferenceable(48) %21) #3
  %22 = getelementptr inbounds %"struct.(anonymous namespace)::AIWWriter", ptr %5, i32 0, i32 5
  call void @_ZN5Yosys7hashlib4dictIibNS0_8hash_opsIiEEED2Ev(ptr noundef nonnull align 8 dereferenceable(49) %22) #3
  %23 = getelementptr inbounds %"struct.(anonymous namespace)::AIWWriter", ptr %5, i32 0, i32 4
  call void @_ZN5Yosys7hashlib4dictIiNS_5RTLIL6SigBitENS0_8hash_opsIiEEED2Ev(ptr noundef nonnull align 8 dereferenceable(49) %23) #3
  %24 = getelementptr inbounds %"struct.(anonymous namespace)::AIWWriter", ptr %5, i32 0, i32 3
  call void @_ZN5Yosys7hashlib4dictIiNS_5RTLIL6SigBitENS0_8hash_opsIiEEED2Ev(ptr noundef nonnull align 8 dereferenceable(49) %24) #3
  %25 = getelementptr inbounds %"struct.(anonymous namespace)::AIWWriter", ptr %5, i32 0, i32 2
  call void @_ZN5Yosys7hashlib4dictIiSt4pairINS_5RTLIL6SigBitEbENS0_8hash_opsIiEEED2Ev(ptr noundef nonnull align 8 dereferenceable(49) %25) #3
  %26 = getelementptr inbounds %"struct.(anonymous namespace)::AIWWriter", ptr %5, i32 0, i32 1
  call void @_ZNSt14basic_ofstreamIcSt11char_traitsIcEED1Ev(ptr noundef nonnull align 8 dereferenceable(248) %26) #3
  call void @_ZN12_GLOBAL__N_112OutputWriterD2Ev(ptr noundef nonnull align 8 dereferenceable(16) %5) #3
  br label %27

27:                                               ; preds = %17
  %28 = load ptr, ptr %3, align 8
  call void @__cxa_call_unexpected(ptr %28) #23
  unreachable
}