; Function Attrs: mustprogress nounwind uwtable
define internal void @_ZN12_GLOBAL__N_19AIWWriterD2Ev(ptr noundef nonnull align 8 dereferenceable(800) %0) unnamed_addr #3 align 2 personality ptr @__gxx_personality_v0 {
  store ptr getelementptr inbounds ({ [5 x ptr] }, ptr @_ZTVN12_GLOBAL__N_19AIWWriterE, i64 0, i32 0, i64 2), ptr %0, align 8
  %2 = getelementptr inbounds i8, ptr %0, i64 16
  %3 = invoke noundef nonnull align 8 dereferenceable(8) ptr @_ZStlsISt11char_traitsIcEERSt13basic_ostreamIcT_ES5_c(ptr noundef nonnull align 8 dereferenceable(8) %2, i8 noundef signext 46)
          to label %4 unwind label %37

4:                                                ; preds = %1
  %5 = invoke noundef nonnull align 8 dereferenceable(8) ptr @_ZStlsISt11char_traitsIcEERSt13basic_ostreamIcT_ES5_c(ptr noundef nonnull align 8 dereferenceable(8) %3, i8 noundef signext 10)
          to label %6 unwind label %37

6:                                                ; preds = %4
  %7 = getelementptr inbounds i8, ptr %0, i64 752
  %8 = getelementptr inbounds i8, ptr %0, i64 768
  %9 = load ptr, ptr %8, align 8
  invoke void @_ZNSt8_Rb_treeIPN5Yosys5RTLIL4WireESt4pairIKS3_iESt10_Select1stIS6_ESt4lessIS3_ESaIS6_EE8_M_eraseEPSt13_Rb_tree_nodeIS6_E(ptr noundef nonnull align 8 dereferenceable(48) %7, ptr noundef %9)
          to label %_ZNSt3mapIPN5Yosys5RTLIL4WireEiSt4lessIS3_ESaISt4pairIKS3_iEEED2Ev.exit unwind label %10

10:                                               ; preds = %6
  %11 = landingpad { ptr, i32 }
          catch ptr null
  %12 = extractvalue { ptr, i32 } %11, 0
  tail call void @__clang_call_terminate(ptr %12) #30
  unreachable

_ZNSt3mapIPN5Yosys5RTLIL4WireEiSt4lessIS3_ESaISt4pairIKS3_iEEED2Ev.exit: ; preds = %6
  %13 = getelementptr inbounds i8, ptr %0, i64 696
  %14 = getelementptr inbounds i8, ptr %0, i64 720
  %15 = load ptr, ptr %14, align 8
  %.not.i.i.i.i = icmp eq ptr %15, null
  br i1 %.not.i.i.i.i, label %_ZNSt6vectorIN5Yosys7hashlib4dictIibNS1_8hash_opsIiEEE7entry_tESaIS6_EED2Ev.exit.i, label %16

16:                                               ; preds = %_ZNSt3mapIPN5Yosys5RTLIL4WireEiSt4lessIS3_ESaISt4pairIKS3_iEEED2Ev.exit
  tail call void @_ZdlPv(ptr noundef nonnull %15) #32
  br label %_ZNSt6vectorIN5Yosys7hashlib4dictIibNS1_8hash_opsIiEEE7entry_tESaIS6_EED2Ev.exit.i

_ZNSt6vectorIN5Yosys7hashlib4dictIibNS1_8hash_opsIiEEE7entry_tESaIS6_EED2Ev.exit.i: ; preds = %16, %_ZNSt3mapIPN5Yosys5RTLIL4WireEiSt4lessIS3_ESaISt4pairIKS3_iEEED2Ev.exit
  %17 = load ptr, ptr %13, align 8
  %.not.i.i.i1.i = icmp eq ptr %17, null
  br i1 %.not.i.i.i1.i, label %_ZN5Yosys7hashlib4dictIibNS0_8hash_opsIiEEED2Ev.exit, label %18

18:                                               ; preds = %_ZNSt6vectorIN5Yosys7hashlib4dictIibNS1_8hash_opsIiEEE7entry_tESaIS6_EED2Ev.exit.i
  tail call void @_ZdlPv(ptr noundef nonnull %17) #32
  br label %_ZN5Yosys7hashlib4dictIibNS0_8hash_opsIiEEED2Ev.exit

_ZN5Yosys7hashlib4dictIibNS0_8hash_opsIiEEED2Ev.exit: ; preds = %_ZNSt6vectorIN5Yosys7hashlib4dictIibNS1_8hash_opsIiEEE7entry_tESaIS6_EED2Ev.exit.i, %18
  %19 = getelementptr inbounds i8, ptr %0, i64 640
  %20 = getelementptr inbounds i8, ptr %0, i64 664
  %21 = load ptr, ptr %20, align 8
  %.not.i.i.i.i2 = icmp eq ptr %21, null
  br i1 %.not.i.i.i.i2, label %_ZNSt6vectorIN5Yosys7hashlib4dictIiNS0_5RTLIL6SigBitENS1_8hash_opsIiEEE7entry_tESaIS8_EED2Ev.exit.i, label %22

22:                                               ; preds = %_ZN5Yosys7hashlib4dictIibNS0_8hash_opsIiEEED2Ev.exit
  tail call void @_ZdlPv(ptr noundef nonnull %21) #32
  br label %_ZNSt6vectorIN5Yosys7hashlib4dictIiNS0_5RTLIL6SigBitENS1_8hash_opsIiEEE7entry_tESaIS8_EED2Ev.exit.i

_ZNSt6vectorIN5Yosys7hashlib4dictIiNS0_5RTLIL6SigBitENS1_8hash_opsIiEEE7entry_tESaIS8_EED2Ev.exit.i: ; preds = %22, %_ZN5Yosys7hashlib4dictIibNS0_8hash_opsIiEEED2Ev.exit
  %23 = load ptr, ptr %19, align 8
  %.not.i.i.i1.i3 = icmp eq ptr %23, null
  br i1 %.not.i.i.i1.i3, label %_ZN5Yosys7hashlib4dictIiNS_5RTLIL6SigBitENS0_8hash_opsIiEEED2Ev.exit, label %24

24:                                               ; preds = %_ZNSt6vectorIN5Yosys7hashlib4dictIiNS0_5RTLIL6SigBitENS1_8hash_opsIiEEE7entry_tESaIS8_EED2Ev.exit.i
  tail call void @_ZdlPv(ptr noundef nonnull %23) #32
  br label %_ZN5Yosys7hashlib4dictIiNS_5RTLIL6SigBitENS0_8hash_opsIiEEED2Ev.exit

_ZN5Yosys7hashlib4dictIiNS_5RTLIL6SigBitENS0_8hash_opsIiEEED2Ev.exit: ; preds = %_ZNSt6vectorIN5Yosys7hashlib4dictIiNS0_5RTLIL6SigBitENS1_8hash_opsIiEEE7entry_tESaIS8_EED2Ev.exit.i, %24
  %25 = getelementptr inbounds i8, ptr %0, i64 584
  %26 = getelementptr inbounds i8, ptr %0, i64 608
  %27 = load ptr, ptr %26, align 8
  %.not.i.i.i.i4 = icmp eq ptr %27, null
  br i1 %.not.i.i.i.i4, label %_ZNSt6vectorIN5Yosys7hashlib4dictIiNS0_5RTLIL6SigBitENS1_8hash_opsIiEEE7entry_tESaIS8_EED2Ev.exit.i5, label %28

28:                                               ; preds = %_ZN5Yosys7hashlib4dictIiNS_5RTLIL6SigBitENS0_8hash_opsIiEEED2Ev.exit
  tail call void @_ZdlPv(ptr noundef nonnull %27) #32
  br label %_ZNSt6vectorIN5Yosys7hashlib4dictIiNS0_5RTLIL6SigBitENS1_8hash_opsIiEEE7entry_tESaIS8_EED2Ev.exit.i5

_ZNSt6vectorIN5Yosys7hashlib4dictIiNS0_5RTLIL6SigBitENS1_8hash_opsIiEEE7entry_tESaIS8_EED2Ev.exit.i5: ; preds = %28, %_ZN5Yosys7hashlib4dictIiNS_5RTLIL6SigBitENS0_8hash_opsIiEEED2Ev.exit
  %29 = load ptr, ptr %25, align 8
  %.not.i.i.i1.i6 = icmp eq ptr %29, null
  br i1 %.not.i.i.i1.i6, label %_ZN5Yosys7hashlib4dictIiNS_5RTLIL6SigBitENS0_8hash_opsIiEEED2Ev.exit7, label %30

30:                                               ; preds = %_ZNSt6vectorIN5Yosys7hashlib4dictIiNS0_5RTLIL6SigBitENS1_8hash_opsIiEEE7entry_tESaIS8_EED2Ev.exit.i5
  tail call void @_ZdlPv(ptr noundef nonnull %29) #32
  br label %_ZN5Yosys7hashlib4dictIiNS_5RTLIL6SigBitENS0_8hash_opsIiEEED2Ev.exit7

_ZN5Yosys7hashlib4dictIiNS_5RTLIL6SigBitENS0_8hash_opsIiEEED2Ev.exit7: ; preds = %_ZNSt6vectorIN5Yosys7hashlib4dictIiNS0_5RTLIL6SigBitENS1_8hash_opsIiEEE7entry_tESaIS8_EED2Ev.exit.i5, %30
  %31 = getelementptr inbounds i8, ptr %0, i64 528
  %32 = getelementptr inbounds i8, ptr %0, i64 552
  %33 = load ptr, ptr %32, align 8
  %.not.i.i.i.i8 = icmp eq ptr %33, null
  br i1 %.not.i.i.i.i8, label %_ZNSt6vectorIN5Yosys7hashlib4dictIiSt4pairINS0_5RTLIL6SigBitEbENS1_8hash_opsIiEEE7entry_tESaISA_EED2Ev.exit.i, label %34

34:                                               ; preds = %_ZN5Yosys7hashlib4dictIiNS_5RTLIL6SigBitENS0_8hash_opsIiEEED2Ev.exit7
  tail call void @_ZdlPv(ptr noundef nonnull %33) #32
  br label %_ZNSt6vectorIN5Yosys7hashlib4dictIiSt4pairINS0_5RTLIL6SigBitEbENS1_8hash_opsIiEEE7entry_tESaISA_EED2Ev.exit.i

_ZNSt6vectorIN5Yosys7hashlib4dictIiSt4pairINS0_5RTLIL6SigBitEbENS1_8hash_opsIiEEE7entry_tESaISA_EED2Ev.exit.i: ; preds = %34, %_ZN5Yosys7hashlib4dictIiNS_5RTLIL6SigBitENS0_8hash_opsIiEEED2Ev.exit7
  %35 = load ptr, ptr %31, align 8
  %.not.i.i.i1.i9 = icmp eq ptr %35, null
  br i1 %.not.i.i.i1.i9, label %_ZN5Yosys7hashlib4dictIiSt4pairINS_5RTLIL6SigBitEbENS0_8hash_opsIiEEED2Ev.exit, label %36

36:                                               ; preds = %_ZNSt6vectorIN5Yosys7hashlib4dictIiSt4pairINS0_5RTLIL6SigBitEbENS1_8hash_opsIiEEE7entry_tESaISA_EED2Ev.exit.i
  tail call void @_ZdlPv(ptr noundef nonnull %35) #32
  br label %_ZN5Yosys7hashlib4dictIiSt4pairINS_5RTLIL6SigBitEbENS0_8hash_opsIiEEED2Ev.exit

_ZN5Yosys7hashlib4dictIiSt4pairINS_5RTLIL6SigBitEbENS0_8hash_opsIiEEED2Ev.exit: ; preds = %_ZNSt6vectorIN5Yosys7hashlib4dictIiSt4pairINS0_5RTLIL6SigBitEbENS1_8hash_opsIiEEE7entry_tESaISA_EED2Ev.exit.i, %36
  tail call void @_ZNSt14basic_ofstreamIcSt11char_traitsIcEED1Ev(ptr noundef nonnull align 8 dereferenceable(248) %2) #31
  ret void

37:                                               ; preds = %4, %1
  %38 = landingpad { ptr, i32 }
          filter [0 x ptr] zeroinitializer
  %39 = extractvalue { ptr, i32 } %38, 0
  %40 = getelementptr inbounds i8, ptr %0, i64 752
  tail call void @_ZNSt3mapIPN5Yosys5RTLIL4WireEiSt4lessIS3_ESaISt4pairIKS3_iEEED2Ev(ptr noundef nonnull align 8 dereferenceable(48) %40) #31
  %41 = getelementptr inbounds i8, ptr %0, i64 696
  tail call void @_ZN5Yosys7hashlib4dictIibNS0_8hash_opsIiEEED2Ev(ptr noundef nonnull align 8 dereferenceable(49) %41) #31
  %42 = getelementptr inbounds i8, ptr %0, i64 640
  tail call void @_ZN5Yosys7hashlib4dictIiNS_5RTLIL6SigBitENS0_8hash_opsIiEEED2Ev(ptr noundef nonnull align 8 dereferenceable(49) %42) #31
  %43 = getelementptr inbounds i8, ptr %0, i64 584
  tail call void @_ZN5Yosys7hashlib4dictIiNS_5RTLIL6SigBitENS0_8hash_opsIiEEED2Ev(ptr noundef nonnull align 8 dereferenceable(49) %43) #31
  %44 = getelementptr inbounds i8, ptr %0, i64 528
  tail call void @_ZN5Yosys7hashlib4dictIiSt4pairINS_5RTLIL6SigBitEbENS0_8hash_opsIiEEED2Ev(ptr noundef nonnull align 8 dereferenceable(49) %44) #31
  tail call void @_ZNSt14basic_ofstreamIcSt11char_traitsIcEED1Ev(ptr noundef nonnull align 8 dereferenceable(248) %2) #31
  tail call void @__cxa_call_unexpected(ptr %39) #30
  unreachable
}